(dp0
V
p1
I0
sV6962
p2
I1
sS'ali'
p3
I2
sS'ghassan'
p4
I3
sV5741
p5
I4
sS'faisal'
p6
I5
sS'najmat'
p7
I6
sVapartment
p8
I7
sV4
p9
I8
sS'circle'
p10
I9
sV8652
p11
I10
sS'real'
p12
I11
sS'town'
p13
I12
sS'garden'
p14
I13
sS'views'
p15
I14
sS'frond'
p16
I15
sS'nada'
p17
I16
sS'wasim'
p18
I17
sV4036
p19
I18
sS'walk'
p20
I62
sS'dubai'
p21
I20
sS'd'
p22
I21
sV1559
p23
I22
sS'jumeirah'
p24
I35
sS'p'
p25
I24
sV5690
p26
I25
sS'prerna'
p27
I26
sS'square'
p28
I27
sVvilla
p29
I28
sS'apartments'
p30
I29
sS'ashraf'
p31
I30
sS'flavia'
p32
I31
sS'palm'
p33
I32
sV2829
p34
I33
sV9306
p35
I34
sS'bay'
p36
I23
sS'maneesh'
p37
I36
sS'nakheel'
p38
I37
sS'ricky'
p39
I38
sV3
p40
I39
sS'abu'
p41
I40
sV7
p42
I41
sV1655
p43
I42
sV5000
p44
I43
sS'shoreline'
p45
I44
sS'reza'
p46
I45
sS'oasis'
p47
I46
sVstudio
p48
I47
sV9000
p49
I48
sS'marina'
p50
I49
sS'by'
p51
I50
sS'kamlani'
p52
I51
sS'island'
p53
I52
sS'silicon'
p54
I53
sV1536
p55
I54
sS'wolf'
p56
I55
sS'rami'
p57
I56
sS'cedre'
p58
I57
sS'signature'
p59
I58
sS'muneera'
p60
I59
sS'salimov'
p61
I60
sV3800
p62
I61
sS'one'
p63
I19
sS'village'
p64
I63
sVtownhouse
p65
I64
sS'damac'
p66
I65
sS'city'
p67
I66
sV2055
p68
I67
sS'links'
p69
I90
sS'district'
p70
I69
sS'west'
p71
I70
sS'farah'
p72
I71
sS'sports'
p73
I72
sS'atasi'
p74
I73
sV2
p75
I74
sV6
p76
I75
sS'townhouses'
p77
I76
sV7487
p78
I77
sS'brokers'
p79
I78
sV7000
p80
I79
sV6480
p81
I80
sS'reem'
p82
I81
sS'mohammad'
p83
I82
sS'homes'
p84
I83
sS'ahmed'
p85
I84
sS'vladimir'
p86
I85
sS'gabor'
p87
I86
sV1028
p88
I87
sS'bin'
p89
I88
sS'raha'
p90
I89
sS'estate'
p91
I68
sS'al'
p92
I91
sS'habool'
p93
I92
sS'manchanda'
p94
I93
sS'gorbachev'
p95
I94
sS'rahba'
p96
I95
sS'1'
p97
I96
sV5
p98
I97
sV5800
p99
I98
sS'beach'
p100
I99
sS'dhabi'
p101
I100
sS'tower'
p102
I101
sV7+
p103
I102
sS'paresh'
p104
I103
sS'loulwa'
p105
I104
sS'the'
p106
I116
sV480
p107
I106
sS'building'
p108
I107
sS'18b'
p109
I108
sS'mulani'
p110
I109
sS'rashid'
p111
I110
sV5636
p112
I111
sV2236
p113
I112
sS'villas'
p114
I113
sS'hassan'
p115
I114
sS'hayat'
p116
I115
sS'erian'
p117
I105
sS'alisher'
p118
I117
sS'frankfurt'
p119
I118
s.